target datalayout = "e-m:e-p270:32:32-p271:32:32-p272:64:64-i64:64-i128:128-f80:128-n8:16:32:64-S128"
target triple = "x86_64-pc-linux-gnu"

; Function Attrs: nounwind uwtable
define i32 @pmix_argv_append_unique_idx(ptr noundef %0, ptr noundef %1, ptr noundef %2) #0 {
  %4 = alloca i32, align 4
  %5 = alloca ptr, align 8
  %6 = alloca ptr, align 8
  %7 = alloca ptr, align 8
  %8 = alloca i32, align 4
  %9 = alloca i32, align 4
  %10 = alloca i32, align 4
  store ptr %0, ptr %5, align 8, !tbaa !3
  store ptr %1, ptr %6, align 8, !tbaa !8
  store ptr %2, ptr %7, align 8, !tbaa !10
  call void @llvm.lifetime.start.p0(i64 4, ptr %8) #7
  call void @llvm.lifetime.start.p0(i64 4, ptr %9) #7
  %11 = load ptr, ptr %6, align 8, !tbaa !8
  %12 = load ptr, ptr %11, align 8, !tbaa !14
  %13 = icmp eq ptr null, %12
  br i1 %13, label %14, label %15

14:                                               ; preds = %3
  br label %42

15:                                               ; preds = %3
  store i32 0, ptr %8, align 4, !tbaa !12
  br label %16

16:                                               ; preds = %38, %15
  %17 = load ptr, ptr %6, align 8, !tbaa !8
  %18 = load ptr, ptr %17, align 8, !tbaa !14
  %19 = load i32, ptr %8, align 4, !tbaa !12
  %20 = sext i32 %19 to i64
  %21 = getelementptr inbounds ptr, ptr %18, i64 %20
  %22 = load ptr, ptr %21, align 8, !tbaa !10
  %23 = icmp ne ptr null, %22
  br i1 %23, label %24, label %41

24:                                               ; preds = %16
  %25 = load ptr, ptr %7, align 8, !tbaa !10
  %26 = load ptr, ptr %6, align 8, !tbaa !8
  %27 = load ptr, ptr %26, align 8, !tbaa !14
  %28 = load i32, ptr %8, align 4, !tbaa !12
  %29 = sext i32 %28 to i64
  %30 = getelementptr inbounds ptr, ptr %27, i64 %29
  %31 = load ptr, ptr %30, align 8, !tbaa !10
  %32 = call i32 @strcmp(ptr noundef %25, ptr noundef %31) #8
  %33 = icmp eq i32 0, %32
  br i1 %33, label %34, label %37

34:                                               ; preds = %24
  %35 = load i32, ptr %8, align 4, !tbaa !12
  %36 = load ptr, ptr %5, align 8, !tbaa !3
  store i32 %35, ptr %36, align 4, !tbaa !12
  store i32 0, ptr %4, align 4
  store i32 1, ptr %10, align 4
  br label %55

37:                                               ; preds = %24
  br label %38

38:                                               ; preds = %37
  %39 = load i32, ptr %8, align 4, !tbaa !12
  %40 = add nsw i32 %39, 1
  store i32 %40, ptr %8, align 4, !tbaa !12
  br label %16, !llvm.loop !16

41:                                               ; preds = %16
  br label %42

42:                                               ; preds = %41, %14
  %43 = load ptr, ptr %6, align 8, !tbaa !8
  %44 = load ptr, ptr %7, align 8, !tbaa !10
  %45 = call i32 @PMIx_Argv_append_nosize(ptr noundef %43, ptr noundef %44)
  store i32 %45, ptr %9, align 4, !tbaa !12
  %46 = icmp ne i32 0, %45
  br i1 %46, label %47, label %49

47:                                               ; preds = %42
  %48 = load i32, ptr %9, align 4, !tbaa !12
  store i32 %48, ptr %4, align 4
  store i32 1, ptr %10, align 4
  br label %55

49:                                               ; preds = %42
  %50 = load ptr, ptr %6, align 8, !tbaa !8
  %51 = load ptr, ptr %50, align 8, !tbaa !14
  %52 = call i32 @PMIx_Argv_count(ptr noundef %51)
  %53 = sub nsw i32 %52, 1
  %54 = load ptr, ptr %5, align 8, !tbaa !3
  store i32 %53, ptr %54, align 4, !tbaa !12
  store i32 0, ptr %4, align 4
  store i32 1, ptr %10, align 4
  br label %55

55:                                               ; preds = %49, %47, %34
  call void @llvm.lifetime.end.p0(i64 4, ptr %9) #7
  call void @llvm.lifetime.end.p0(i64 4, ptr %8) #7
  %56 = load i32, ptr %4, align 4
  ret i32 %56
}