; Function Attrs: nounwind uwtable
define i32 @pmix_argv_append_unique_idx(ptr noundef writeonly captures(none) %0, ptr noundef %1, ptr noundef %2) local_unnamed_addr #0 {
  %4 = load ptr, ptr %1, align 8, !tbaa !3
  %5 = icmp eq ptr %4, null
  br i1 %5, label %.loopexit, label %.preheader

.preheader:                                       ; preds = %3
  %6 = load ptr, ptr %4, align 8, !tbaa !10
  %.not19 = icmp eq ptr %6, null
  br i1 %.not19, label %.loopexit, label %.lr.ph

.lr.ph:                                           ; preds = %.preheader, %12
  %indvars.iv = phi i64 [ %indvars.iv.next, %12 ], [ 0, %.preheader ]
  %7 = phi ptr [ %14, %12 ], [ %6, %.preheader ]
  %8 = tail call i32 @strcmp(ptr noundef nonnull dereferenceable(1) %2, ptr noundef nonnull dereferenceable(1) %7) #11
  %9 = icmp eq i32 %8, 0
  br i1 %9, label %10, label %12

10:                                               ; preds = %.lr.ph
  %11 = trunc nuw nsw i64 %indvars.iv to i32
  br label %.sink.split

12:                                               ; preds = %.lr.ph
  %indvars.iv.next = add nuw nsw i64 %indvars.iv, 1
  %13 = getelementptr inbounds nuw ptr, ptr %4, i64 %indvars.iv.next
  %14 = load ptr, ptr %13, align 8, !tbaa !10
  %.not = icmp eq ptr %14, null
  br i1 %.not, label %.loopexit, label %.lr.ph, !llvm.loop !12

.loopexit:                                        ; preds = %12, %.preheader, %3
  %15 = tail call i32 @PMIx_Argv_append_nosize(ptr noundef nonnull %1, ptr noundef %2) #10
  %.not17 = icmp eq i32 %15, 0
  br i1 %.not17, label %16, label %20

16:                                               ; preds = %.loopexit
  %17 = load ptr, ptr %1, align 8, !tbaa !3
  %18 = tail call i32 @PMIx_Argv_count(ptr noundef %17) #10
  %19 = add nsw i32 %18, -1
  br label %.sink.split

.sink.split:                                      ; preds = %10, %16
  %.sink = phi i32 [ %19, %16 ], [ %11, %10 ]
  store i32 %.sink, ptr %0, align 4, !tbaa !8
  br label %20

20:                                               ; preds = %.sink.split, %.loopexit
  %.0 = phi i32 [ %15, %.loopexit ], [ 0, %.sink.split ]
  ret i32 %.0
}